target datalayout = "e-m:e-p270:32:32-p271:32:32-p272:64:64-i64:64-i128:128-f80:128-n8:16:32:64-S128"
target triple = "x86_64-pc-linux-gnu"

%struct._zend_extension = type { ptr, ptr, ptr, ptr, ptr, ptr, ptr, ptr, ptr, ptr, ptr, ptr, ptr, ptr, ptr, ptr, ptr, ptr, ptr, ptr, ptr, ptr, ptr, ptr, ptr, i32 }

; Function Attrs: nounwind uwtable
define internal void @zend_extension_op_array_handler(ptr noundef %0, ptr noundef %1) #0 {
  %3 = alloca ptr, align 8
  %4 = alloca ptr, align 8
  store ptr %0, ptr %3, align 8, !tbaa !57
  store ptr %1, ptr %4, align 8, !tbaa !4
  %5 = load ptr, ptr %3, align 8, !tbaa !57
  %6 = getelementptr inbounds nuw %struct._zend_extension, ptr %5, i32 0, i32 10
  %7 = load ptr, ptr %6, align 8, !tbaa !206
  %8 = icmp ne ptr %7, null
  br i1 %8, label %9, label %14

9:                                                ; preds = %2
  %10 = load ptr, ptr %3, align 8, !tbaa !57
  %11 = getelementptr inbounds nuw %struct._zend_extension, ptr %10, i32 0, i32 10
  %12 = load ptr, ptr %11, align 8, !tbaa !206
  %13 = load ptr, ptr %4, align 8, !tbaa !4
  call void %12(ptr noundef %13)
  br label %14

14:                                               ; preds = %9, %2
  ret void
}